; Function Attrs: mustprogress uwtable
define dso_local void @_ZN21btMultiBodyConstraint25allocateJacobiansMultiDofEv(ptr noundef nonnull align 8 captures(none) dereferenceable(96) initializes((44, 52)) %0) local_unnamed_addr #2 align 2 {
  %2 = getelementptr inbounds nuw i8, ptr %0, i64 8
  %3 = load ptr, ptr %2, align 8, !tbaa !7
  %.not.i = icmp eq ptr %3, null
  br i1 %.not.i, label %._crit_edge, label %4

._crit_edge:                                      ; preds = %1
  %.phi.trans.insert = getelementptr inbounds nuw i8, ptr %0, i64 40
  %.pre = load i32, ptr %.phi.trans.insert, align 8, !tbaa !23
  br label %9

4:                                                ; preds = %1
  %5 = getelementptr inbounds nuw i8, ptr %3, i64 628
  %6 = load i32, ptr %5, align 4, !tbaa !32
  %7 = add nsw i32 %6, 6
  %8 = getelementptr inbounds nuw i8, ptr %0, i64 40
  store i32 %7, ptr %8, align 8, !tbaa !23
  br label %9

9:                                                ; preds = %._crit_edge, %4
  %10 = phi i32 [ %.pre, %._crit_edge ], [ %7, %4 ]
  %11 = getelementptr inbounds nuw i8, ptr %0, i64 16
  %12 = load ptr, ptr %11, align 8, !tbaa !18
  %.not2.i = icmp eq ptr %12, null
  br i1 %.not2.i, label %_ZN21btMultiBodyConstraint19updateJacobianSizesEv.exit, label %13

13:                                               ; preds = %9
  %14 = add nsw i32 %10, 6
  %15 = getelementptr inbounds nuw i8, ptr %12, i64 628
  %16 = load i32, ptr %15, align 4, !tbaa !32
  %17 = add nsw i32 %14, %16
  br label %_ZN21btMultiBodyConstraint19updateJacobianSizesEv.exit

_ZN21btMultiBodyConstraint19updateJacobianSizesEv.exit: ; preds = %9, %13
  %.sink.i = phi i32 [ %17, %13 ], [ %10, %9 ]
  %18 = getelementptr inbounds nuw i8, ptr %0, i64 44
  store i32 %.sink.i, ptr %18, align 4, !tbaa !24
  %19 = add nsw i32 %.sink.i, 1
  %20 = getelementptr inbounds nuw i8, ptr %0, i64 36
  %21 = load i32, ptr %20, align 4, !tbaa !22
  %22 = mul nsw i32 %21, %19
  %23 = getelementptr inbounds nuw i8, ptr %0, i64 48
  store i32 %22, ptr %23, align 8, !tbaa !49
  %24 = add nsw i32 %.sink.i, 2
  %25 = mul nsw i32 %21, %24
  %26 = getelementptr inbounds nuw i8, ptr %0, i64 68
  %27 = load i32, ptr %26, align 4, !tbaa !30
  %28 = icmp sgt i32 %25, %27
  br i1 %28, label %29, label %_ZN20btAlignedObjectArrayIfE6resizeEiRKf.exit

29:                                               ; preds = %_ZN21btMultiBodyConstraint19updateJacobianSizesEv.exit
  %30 = getelementptr inbounds nuw i8, ptr %0, i64 72
  %31 = load i32, ptr %30, align 8, !tbaa !31
  %32 = icmp slt i32 %31, %25
  br i1 %32, label %33, label %..lr.ph.i_crit_edge

..lr.ph.i_crit_edge:                              ; preds = %29
  %.phi.trans.insert1 = getelementptr inbounds nuw i8, ptr %0, i64 80
  %.pre2 = load ptr, ptr %.phi.trans.insert1, align 8, !tbaa !29
  br label %.lr.ph.i

33:                                               ; preds = %29
  %.not.i.i.i = icmp eq i32 %25, 0
  br i1 %.not.i.i.i, label %_ZN20btAlignedObjectArrayIfE8allocateEi.exit.i.i, label %34

34:                                               ; preds = %33
  %35 = sext i32 %25 to i64
  %36 = shl nsw i64 %35, 2
  %37 = tail call noundef ptr @_Z22btAlignedAllocInternalmi(i64 noundef %36, i32 noundef 16)
  %.pre.i = load i32, ptr %26, align 4, !tbaa !30
  br label %_ZN20btAlignedObjectArrayIfE8allocateEi.exit.i.i

_ZN20btAlignedObjectArrayIfE8allocateEi.exit.i.i: ; preds = %34, %33
  %38 = phi i32 [ %.pre.i, %34 ], [ %27, %33 ]
  %.0.i.i.i = phi ptr [ %37, %34 ], [ null, %33 ]
  %39 = icmp sgt i32 %38, 0
  %40 = getelementptr inbounds nuw i8, ptr %0, i64 80
  %41 = load ptr, ptr %40, align 8, !tbaa !29
  br i1 %39, label %.lr.ph.i.i.i, label %_ZNK20btAlignedObjectArrayIfE4copyEiiPf.exit.i.i

.lr.ph.i.i.i:                                     ; preds = %_ZN20btAlignedObjectArrayIfE8allocateEi.exit.i.i
  %wide.trip.count.i.i.i = zext nneg i32 %38 to i64
  br label %42

42:                                               ; preds = %42, %.lr.ph.i.i.i
  %indvars.iv.i.i.i = phi i64 [ 0, %.lr.ph.i.i.i ], [ %indvars.iv.next.i.i.i, %42 ]
  %43 = getelementptr inbounds nuw float, ptr %.0.i.i.i, i64 %indvars.iv.i.i.i
  %44 = getelementptr inbounds nuw float, ptr %41, i64 %indvars.iv.i.i.i
  %45 = load float, ptr %44, align 4, !tbaa !50
  store float %45, ptr %43, align 4, !tbaa !50
  %indvars.iv.next.i.i.i = add nuw nsw i64 %indvars.iv.i.i.i, 1
  %exitcond.not.i.i.i = icmp eq i64 %indvars.iv.next.i.i.i, %wide.trip.count.i.i.i
  br i1 %exitcond.not.i.i.i, label %_ZNK20btAlignedObjectArrayIfE4copyEiiPf.exit.thread.i.i, label %42, !llvm.loop !51

_ZNK20btAlignedObjectArrayIfE4copyEiiPf.exit.i.i: ; preds = %_ZN20btAlignedObjectArrayIfE8allocateEi.exit.i.i
  %.not.i5.i.i = icmp eq ptr %41, null
  br i1 %.not.i5.i.i, label %_ZN20btAlignedObjectArrayIfE7reserveEi.exit.thread26.i, label %_ZNK20btAlignedObjectArrayIfE4copyEiiPf.exit.thread.i.i

_ZN20btAlignedObjectArrayIfE7reserveEi.exit.thread26.i: ; preds = %_ZNK20btAlignedObjectArrayIfE4copyEiiPf.exit.i.i
  %46 = getelementptr inbounds nuw i8, ptr %0, i64 88
  store i8 1, ptr %46, align 8, !tbaa !28
  store ptr %.0.i.i.i, ptr %40, align 8, !tbaa !29
  store i32 %25, ptr %30, align 8, !tbaa !31
  br label %.lr.ph.i

_ZNK20btAlignedObjectArrayIfE4copyEiiPf.exit.thread.i.i: ; preds = %42, %_ZNK20btAlignedObjectArrayIfE4copyEiiPf.exit.i.i
  %47 = getelementptr inbounds nuw i8, ptr %0, i64 88
  %48 = load i8, ptr %47, align 8, !tbaa !28, !range !53, !noundef !54
  %49 = trunc nuw i8 %48 to i1
  br i1 %49, label %50, label %_ZN20btAlignedObjectArrayIfE7reserveEi.exit.i

50:                                               ; preds = %_ZNK20btAlignedObjectArrayIfE4copyEiiPf.exit.thread.i.i
  tail call void @_Z21btAlignedFreeInternalPv(ptr noundef nonnull %41)
  br label %_ZN20btAlignedObjectArrayIfE7reserveEi.exit.i

_ZN20btAlignedObjectArrayIfE7reserveEi.exit.i:    ; preds = %50, %_ZNK20btAlignedObjectArrayIfE4copyEiiPf.exit.thread.i.i
  store i8 1, ptr %47, align 8, !tbaa !28
  store ptr %.0.i.i.i, ptr %40, align 8, !tbaa !29
  store i32 %25, ptr %30, align 8, !tbaa !31
  br label %.lr.ph.i

.lr.ph.i:                                         ; preds = %..lr.ph.i_crit_edge, %_ZN20btAlignedObjectArrayIfE7reserveEi.exit.i, %_ZN20btAlignedObjectArrayIfE7reserveEi.exit.thread26.i
  %51 = phi ptr [ %.pre2, %..lr.ph.i_crit_edge ], [ %.0.i.i.i, %_ZN20btAlignedObjectArrayIfE7reserveEi.exit.i ], [ %.0.i.i.i, %_ZN20btAlignedObjectArrayIfE7reserveEi.exit.thread26.i ]
  %52 = sext i32 %27 to i64
  %wide.trip.count.i = sext i32 %25 to i64
  %53 = shl nsw i64 %52, 2
  %scevgep = getelementptr i8, ptr %51, i64 %53
  %54 = sub nsw i64 %wide.trip.count.i, %52
  %55 = shl nsw i64 %54, 2
  tail call void @llvm.memset.p0.i64(ptr align 4 %scevgep, i8 0, i64 %55, i1 false), !tbaa !50
  br label %_ZN20btAlignedObjectArrayIfE6resizeEiRKf.exit

_ZN20btAlignedObjectArrayIfE6resizeEiRKf.exit:    ; preds = %.lr.ph.i, %_ZN21btMultiBodyConstraint19updateJacobianSizesEv.exit
  store i32 %25, ptr %26, align 4, !tbaa !30
  ret void
}